; Function Attrs: mustprogress uwtable
define void @_ZN3gmx30AnalysisDataFrameAverageModule12frameStartedERKNS_23AnalysisDataFrameHeaderE(ptr noundef nonnull align 8 dereferenceable(32) %0, ptr noundef nonnull align 4 dereferenceable(12) %1) unnamed_addr #3 align 2 {
  %3 = getelementptr inbounds i8, ptr %0, i64 24
  %4 = load ptr, ptr %3, align 8
  %5 = tail call noundef nonnull align 8 dereferenceable(45) ptr @_ZN3gmx19AnalysisDataStorage10startFrameERKNS_23AnalysisDataFrameHeaderE(ptr noundef nonnull align 8 dereferenceable(8) %4, ptr noundef nonnull align 4 dereferenceable(12) %1)
  %6 = tail call noundef i32 @_ZNK3gmx20AbstractAnalysisData11columnCountEv(ptr noundef nonnull align 8 dereferenceable(16) %0)
  %7 = icmp sgt i32 %6, 0
  br i1 %7, label %.lr.ph, label %._crit_edge

.lr.ph:                                           ; preds = %2
  %8 = getelementptr inbounds i8, ptr %5, i64 8
  %9 = getelementptr inbounds i8, ptr %5, i64 36
  %10 = getelementptr inbounds i8, ptr %5, i64 44
  br label %11

11:                                               ; preds = %.lr.ph, %11
  %indvars.iv = phi i64 [ 0, %.lr.ph ], [ %indvars.iv.next, %11 ]
  %12 = load ptr, ptr %3, align 8
  %13 = getelementptr inbounds i8, ptr %12, i64 8
  %14 = load ptr, ptr %13, align 8
  %15 = getelementptr inbounds i32, ptr %14, i64 %indvars.iv
  store i32 0, ptr %15, align 4
  %16 = load i32, ptr %9, align 4
  %17 = trunc nuw nsw i64 %indvars.iv to i32
  %18 = add nsw i32 %16, %17
  %19 = sext i32 %18 to i64
  %20 = load ptr, ptr %8, align 8
  %21 = getelementptr inbounds %"class.gmx::AnalysisDataValue", ptr %20, i64 %19
  store float 0.000000e+00, ptr %21, align 8
  %22 = getelementptr inbounds i8, ptr %21, i64 8
  %23 = load i64, ptr %22, align 8
  %24 = or i64 %23, 5
  store i64 %24, ptr %22, align 8
  store i8 1, ptr %10, align 4
  %indvars.iv.next = add nuw nsw i64 %indvars.iv, 1
  %25 = tail call noundef i32 @_ZNK3gmx20AbstractAnalysisData11columnCountEv(ptr noundef nonnull align 8 dereferenceable(16) %0)
  %26 = sext i32 %25 to i64
  %27 = icmp slt i64 %indvars.iv.next, %26
  br i1 %27, label %11, label %._crit_edge, !llvm.loop !12

._crit_edge:                                      ; preds = %11, %2
  ret void
}